target datalayout = "e-m:e-p270:32:32-p271:32:32-p272:64:64-i64:64-i128:128-f80:128-n8:16:32:64-S128"
target triple = "x86_64-pc-linux-gnu"

%struct.rusage = type { %struct.timeval, %struct.timeval, %union.anon, %union.anon.0, %union.anon.1, %union.anon.2, %union.anon.3, %union.anon.4, %union.anon.5, %union.anon.6, %union.anon.7, %union.anon.8, %union.anon.9, %union.anon.10, %union.anon.11, %union.anon.12 }
%struct.timeval = type { i64, i64 }
%union.anon = type { i64 }
%union.anon.0 = type { i64 }
%union.anon.1 = type { i64 }
%union.anon.2 = type { i64 }
%union.anon.3 = type { i64 }
%union.anon.4 = type { i64 }
%union.anon.5 = type { i64 }
%union.anon.6 = type { i64 }
%union.anon.7 = type { i64 }
%union.anon.8 = type { i64 }
%union.anon.9 = type { i64 }
%union.anon.10 = type { i64 }
%union.anon.11 = type { i64 }
%union.anon.12 = type { i64 }

@log_parser_stats = external global i8, align 1
@.str.1 = private unnamed_addr constant [26 x i8] c"PARSE ANALYSIS STATISTICS\00", align 1
@Save_r = internal global %struct.rusage zeroinitializer, align 8
@Save_t = internal global %struct.timeval zeroinitializer, align 8

; Function Attrs: nounwind uwtable
define dso_local void @ResetUsage() #0 {
  %1 = call i32 @getrusage(i32 noundef 0, ptr noundef @Save_r) #16
  %2 = call i32 @gettimeofday(ptr noundef @Save_t, ptr noundef null) #16
  ret void
}

; Function Attrs: nounwind uwtable
define dso_local ptr @pg_analyze_and_rewrite_withcb(ptr noundef %0, ptr noundef %1, ptr noundef %2, ptr noundef %3, ptr noundef %4) #0 {
  %6 = alloca ptr, align 8
  %7 = alloca ptr, align 8
  %8 = alloca ptr, align 8
  %9 = alloca ptr, align 8
  %10 = alloca ptr, align 8
  %11 = alloca ptr, align 8
  %12 = alloca ptr, align 8
  store ptr %0, ptr %6, align 8
  store ptr %1, ptr %7, align 8
  store ptr %2, ptr %8, align 8
  store ptr %3, ptr %9, align 8
  store ptr %4, ptr %10, align 8
  call void @llvm.lifetime.start.p0(i64 8, ptr %11) #16
  call void @llvm.lifetime.start.p0(i64 8, ptr %12) #16
  br label %13

13:                                               ; preds = %5
  br label %14

14:                                               ; preds = %13
  br label %15

15:                                               ; preds = %14
  %16 = load i8, ptr @log_parser_stats, align 1, !range !4, !noundef !5
  %17 = trunc i8 %16 to i1
  br i1 %17, label %18, label %19

18:                                               ; preds = %15
  call void @ResetUsage()
  br label %19

19:                                               ; preds = %18, %15
  %20 = load ptr, ptr %6, align 8
  %21 = load ptr, ptr %7, align 8
  %22 = load ptr, ptr %8, align 8
  %23 = load ptr, ptr %9, align 8
  %24 = load ptr, ptr %10, align 8
  %25 = call ptr @parse_analyze_withcb(ptr noundef %20, ptr noundef %21, ptr noundef %22, ptr noundef %23, ptr noundef %24)
  store ptr %25, ptr %11, align 8
  %26 = load i8, ptr @log_parser_stats, align 1, !range !4, !noundef !5
  %27 = trunc i8 %26 to i1
  br i1 %27, label %28, label %29

28:                                               ; preds = %19
  call void @ShowUsage(ptr noundef @.str.1)
  br label %29

29:                                               ; preds = %28, %19
  %30 = load ptr, ptr %11, align 8
  %31 = call ptr @pg_rewrite_query(ptr noundef %30)
  store ptr %31, ptr %12, align 8
  br label %32

32:                                               ; preds = %29
  br label %33

33:                                               ; preds = %32
  br label %34

34:                                               ; preds = %33
  %35 = load ptr, ptr %12, align 8
  call void @llvm.lifetime.end.p0(i64 8, ptr %12) #16
  call void @llvm.lifetime.end.p0(i64 8, ptr %11) #16
  ret ptr %35
}