; Function Attrs: nounwind uwtable
define dso_local ptr @pg_analyze_and_rewrite_withcb(ptr noundef %0, ptr noundef %1, ptr noundef %2, ptr noundef %3, ptr noundef %4) local_unnamed_addr #0 {
  %6 = load i8, ptr @log_parser_stats, align 1, !range !5, !noundef !6
  %7 = trunc nuw i8 %6 to i1
  br i1 %7, label %8, label %11

8:                                                ; preds = %5
  %9 = tail call i32 @getrusage(i32 noundef 0, ptr noundef nonnull @Save_r) #22
  %10 = tail call i32 @gettimeofday(ptr noundef nonnull @Save_t, ptr noundef null) #22
  br label %11

11:                                               ; preds = %8, %5
  %12 = tail call ptr @parse_analyze_withcb(ptr noundef %0, ptr noundef %1, ptr noundef %2, ptr noundef %3, ptr noundef %4) #22
  %13 = load i8, ptr @log_parser_stats, align 1, !range !5, !noundef !6
  %14 = trunc nuw i8 %13 to i1
  br i1 %14, label %15, label %16

15:                                               ; preds = %11
  tail call void @ShowUsage(ptr noundef nonnull @.str.1)
  br label %16

16:                                               ; preds = %15, %11
  %17 = tail call ptr @pg_rewrite_query(ptr noundef %12)
  ret ptr %17
}